target datalayout = "e-m:e-p270:32:32-p271:32:32-p272:64:64-i64:64-i128:128-f80:128-n8:16:32:64-S128"
target triple = "x86_64-pc-linux-gnu"

%struct._object = type { %union.anon, ptr }
%union.anon = type { i64 }
%struct.elementtreestate = type { ptr, ptr, ptr, ptr, ptr, ptr, ptr, ptr, ptr, ptr, ptr, ptr, ptr, ptr, ptr, ptr, ptr, ptr, ptr }
%struct.PyExpat_CAPI = type { ptr, i32, i32, i32, i32, ptr, ptr, ptr, ptr, ptr, ptr, ptr, ptr, ptr, ptr, ptr, ptr, ptr, ptr, ptr, ptr, ptr, ptr, ptr, ptr }
%struct.XMLParserObject = type { %struct._object, ptr, ptr, ptr, ptr, ptr, ptr, ptr, ptr, ptr, ptr, ptr, ptr, ptr, ptr, ptr }

@_Py_NoneStruct = external global %struct._object, align 8
@.str.79 = private unnamed_addr constant [1 x i8] zeroinitializer, align 1
@PyExc_ValueError = external global ptr, align 8
@.str.119 = private unnamed_addr constant [35 x i8] c"XMLParser.__init__() wasn't called\00", align 1

; Function Attrs: nounwind uwtable
define internal ptr @expat_parse(ptr noundef %0, ptr noundef %1, ptr noundef %2, i32 noundef %3, i32 noundef %4) #0 {
  %6 = alloca ptr, align 8
  %7 = alloca ptr, align 8
  %8 = alloca ptr, align 8
  %9 = alloca ptr, align 8
  %10 = alloca i32, align 4
  %11 = alloca i32, align 4
  %12 = alloca i32, align 4
  %13 = alloca i32, align 4
  store ptr %0, ptr %7, align 8, !tbaa !8
  store ptr %1, ptr %8, align 8, !tbaa !8
  store ptr %2, ptr %9, align 8, !tbaa !139
  store i32 %3, ptr %10, align 4, !tbaa !13
  store i32 %4, ptr %11, align 4, !tbaa !13
  call void @llvm.lifetime.start.p0(i64 4, ptr %12) #8
  %14 = load ptr, ptr %7, align 8, !tbaa !8
  %15 = getelementptr inbounds nuw %struct.elementtreestate, ptr %14, i32 0, i32 18
  %16 = load ptr, ptr %15, align 8, !tbaa !29
  %17 = getelementptr inbounds nuw %struct.PyExpat_CAPI, ptr %16, i32 0, i32 9
  %18 = load ptr, ptr %17, align 8, !tbaa !181
  %19 = load ptr, ptr %8, align 8, !tbaa !8
  %20 = getelementptr inbounds nuw %struct.XMLParserObject, ptr %19, i32 0, i32 1
  %21 = load ptr, ptr %20, align 8, !tbaa !172
  %22 = load ptr, ptr %9, align 8, !tbaa !139
  %23 = load i32, ptr %10, align 4, !tbaa !13
  %24 = load i32, ptr %11, align 4, !tbaa !13
  %25 = call i32 %18(ptr noundef %21, ptr noundef %22, i32 noundef %23, i32 noundef %24)
  store i32 %25, ptr %12, align 4, !tbaa !13
  %26 = call ptr @PyErr_Occurred()
  %27 = icmp ne ptr %26, null
  br i1 %27, label %28, label %29

28:                                               ; preds = %5
  store ptr null, ptr %6, align 8
  store i32 1, ptr %13, align 4
  br label %62

29:                                               ; preds = %5
  %30 = load i32, ptr %12, align 4, !tbaa !13
  %31 = icmp ne i32 %30, 0
  br i1 %31, label %61, label %32

32:                                               ; preds = %29
  %33 = load ptr, ptr %7, align 8, !tbaa !8
  %34 = load ptr, ptr %7, align 8, !tbaa !8
  %35 = getelementptr inbounds nuw %struct.elementtreestate, ptr %34, i32 0, i32 18
  %36 = load ptr, ptr %35, align 8, !tbaa !29
  %37 = getelementptr inbounds nuw %struct.PyExpat_CAPI, ptr %36, i32 0, i32 6
  %38 = load ptr, ptr %37, align 8, !tbaa !182
  %39 = load ptr, ptr %8, align 8, !tbaa !8
  %40 = getelementptr inbounds nuw %struct.XMLParserObject, ptr %39, i32 0, i32 1
  %41 = load ptr, ptr %40, align 8, !tbaa !172
  %42 = call i32 %38(ptr noundef %41)
  %43 = load ptr, ptr %7, align 8, !tbaa !8
  %44 = getelementptr inbounds nuw %struct.elementtreestate, ptr %43, i32 0, i32 18
  %45 = load ptr, ptr %44, align 8, !tbaa !29
  %46 = getelementptr inbounds nuw %struct.PyExpat_CAPI, ptr %45, i32 0, i32 8
  %47 = load ptr, ptr %46, align 8, !tbaa !183
  %48 = load ptr, ptr %8, align 8, !tbaa !8
  %49 = getelementptr inbounds nuw %struct.XMLParserObject, ptr %48, i32 0, i32 1
  %50 = load ptr, ptr %49, align 8, !tbaa !172
  %51 = call i64 %47(ptr noundef %50)
  %52 = load ptr, ptr %7, align 8, !tbaa !8
  %53 = getelementptr inbounds nuw %struct.elementtreestate, ptr %52, i32 0, i32 18
  %54 = load ptr, ptr %53, align 8, !tbaa !29
  %55 = getelementptr inbounds nuw %struct.PyExpat_CAPI, ptr %54, i32 0, i32 7
  %56 = load ptr, ptr %55, align 8, !tbaa !184
  %57 = load ptr, ptr %8, align 8, !tbaa !8
  %58 = getelementptr inbounds nuw %struct.XMLParserObject, ptr %57, i32 0, i32 1
  %59 = load ptr, ptr %58, align 8, !tbaa !172
  %60 = call i64 %56(ptr noundef %59)
  call void @expat_set_error(ptr noundef %33, i32 noundef %42, i64 noundef %51, i64 noundef %60, ptr noundef null)
  store ptr null, ptr %6, align 8
  store i32 1, ptr %13, align 4
  br label %62

61:                                               ; preds = %29
  store ptr @_Py_NoneStruct, ptr %6, align 8
  store i32 1, ptr %13, align 4
  br label %62

62:                                               ; preds = %61, %32, %28
  call void @llvm.lifetime.end.p0(i64 4, ptr %12) #8
  %63 = load ptr, ptr %6, align 8
  ret ptr %63
}

; Function Attrs: inlinehint nounwind uwtable
define internal i32 @_check_xmlparser(ptr noundef %0) #3 {
  %2 = alloca i32, align 4
  %3 = alloca ptr, align 8
  store ptr %0, ptr %3, align 8, !tbaa !8
  %4 = load ptr, ptr %3, align 8, !tbaa !8
  %5 = getelementptr inbounds nuw %struct.XMLParserObject, ptr %4, i32 0, i32 2
  %6 = load ptr, ptr %5, align 8, !tbaa !168
  %7 = icmp eq ptr %6, null
  br i1 %7, label %8, label %10

8:                                                ; preds = %1
  %9 = load ptr, ptr @PyExc_ValueError, align 8, !tbaa !3
  call void @PyErr_SetString(ptr noundef %9, ptr noundef @.str.119)
  store i32 0, ptr %2, align 4
  br label %11

10:                                               ; preds = %1
  store i32 1, ptr %2, align 4
  br label %11

11:                                               ; preds = %10, %8
  %12 = load i32, ptr %2, align 4
  ret i32 %12
}

; Function Attrs: nounwind uwtable
define internal ptr @_elementtree_XMLParser_flush_impl(ptr noundef %0) #0 {
  %2 = alloca ptr, align 8
  %3 = alloca ptr, align 8
  %4 = alloca ptr, align 8
  %5 = alloca i32, align 4
  %6 = alloca ptr, align 8
  store ptr %0, ptr %3, align 8, !tbaa !8
  %7 = load ptr, ptr %3, align 8, !tbaa !8
  %8 = call i32 @_check_xmlparser(ptr noundef %7)
  %9 = icmp ne i32 %8, 0
  br i1 %9, label %11, label %10

10:                                               ; preds = %1
  store ptr null, ptr %2, align 8
  br label %46

11:                                               ; preds = %1
  call void @llvm.lifetime.start.p0(i64 8, ptr %4) #8
  %12 = load ptr, ptr %3, align 8, !tbaa !8
  %13 = getelementptr inbounds nuw %struct.XMLParserObject, ptr %12, i32 0, i32 14
  %14 = load ptr, ptr %13, align 8, !tbaa !171
  store ptr %14, ptr %4, align 8, !tbaa !8
  %15 = load ptr, ptr %4, align 8, !tbaa !8
  %16 = getelementptr inbounds nuw %struct.elementtreestate, ptr %15, i32 0, i32 18
  %17 = load ptr, ptr %16, align 8, !tbaa !29
  %18 = getelementptr inbounds nuw %struct.PyExpat_CAPI, ptr %17, i32 0, i32 24
  %19 = load ptr, ptr %18, align 8, !tbaa !186
  %20 = icmp eq ptr %19, null
  br i1 %20, label %21, label %22

21:                                               ; preds = %11
  store ptr @_Py_NoneStruct, ptr %2, align 8
  store i32 1, ptr %5, align 4
  br label %45

22:                                               ; preds = %11
  %23 = load ptr, ptr %4, align 8, !tbaa !8
  %24 = getelementptr inbounds nuw %struct.elementtreestate, ptr %23, i32 0, i32 18
  %25 = load ptr, ptr %24, align 8, !tbaa !29
  %26 = getelementptr inbounds nuw %struct.PyExpat_CAPI, ptr %25, i32 0, i32 24
  %27 = load ptr, ptr %26, align 8, !tbaa !186
  %28 = load ptr, ptr %3, align 8, !tbaa !8
  %29 = getelementptr inbounds nuw %struct.XMLParserObject, ptr %28, i32 0, i32 1
  %30 = load ptr, ptr %29, align 8, !tbaa !172
  %31 = call zeroext i8 %27(ptr noundef %30, i8 noundef zeroext 0)
  call void @llvm.lifetime.start.p0(i64 8, ptr %6) #8
  %32 = load ptr, ptr %4, align 8, !tbaa !8
  %33 = load ptr, ptr %3, align 8, !tbaa !8
  %34 = call ptr @expat_parse(ptr noundef %32, ptr noundef %33, ptr noundef @.str.79, i32 noundef 0, i32 noundef 0)
  store ptr %34, ptr %6, align 8, !tbaa !3
  %35 = load ptr, ptr %4, align 8, !tbaa !8
  %36 = getelementptr inbounds nuw %struct.elementtreestate, ptr %35, i32 0, i32 18
  %37 = load ptr, ptr %36, align 8, !tbaa !29
  %38 = getelementptr inbounds nuw %struct.PyExpat_CAPI, ptr %37, i32 0, i32 24
  %39 = load ptr, ptr %38, align 8, !tbaa !186
  %40 = load ptr, ptr %3, align 8, !tbaa !8
  %41 = getelementptr inbounds nuw %struct.XMLParserObject, ptr %40, i32 0, i32 1
  %42 = load ptr, ptr %41, align 8, !tbaa !172
  %43 = call zeroext i8 %39(ptr noundef %42, i8 noundef zeroext 1)
  %44 = load ptr, ptr %6, align 8, !tbaa !3
  store ptr %44, ptr %2, align 8
  store i32 1, ptr %5, align 4
  call void @llvm.lifetime.end.p0(i64 8, ptr %6) #8
  br label %45

45:                                               ; preds = %22, %21
  call void @llvm.lifetime.end.p0(i64 8, ptr %4) #8
  br label %46

46:                                               ; preds = %45, %10
  %47 = load ptr, ptr %2, align 8
  ret ptr %47
}

; Function Attrs: nounwind uwtable
define internal ptr @_elementtree_XMLParser_flush(ptr noundef %0, ptr noundef %1) #0 {
  %3 = alloca ptr, align 8
  %4 = alloca ptr, align 8
  store ptr %0, ptr %3, align 8, !tbaa !3
  store ptr %1, ptr %4, align 8, !tbaa !3
  %5 = load ptr, ptr %3, align 8, !tbaa !3
  %6 = call ptr @_elementtree_XMLParser_flush_impl(ptr noundef %5)
  ret ptr %6
}