; Function Attrs: nounwind uwtable
define internal noundef ptr @_elementtree_XMLParser_flush(ptr noundef readonly captures(none) %0, ptr readnone captures(none) %1) #0 {
  %3 = getelementptr i8, ptr %0, i64 24
  %.val.i = load ptr, ptr %3, align 8, !tbaa !162
  %4 = icmp eq ptr %.val.i, null
  br i1 %4, label %_check_xmlparser.exit.thread.i, label %_check_xmlparser.exit.i

_check_xmlparser.exit.thread.i:                   ; preds = %2
  %5 = load ptr, ptr @PyExc_ValueError, align 8, !tbaa !20
  tail call void @PyErr_SetString(ptr noundef %5, ptr noundef nonnull @.str.119) #12
  br label %_elementtree_XMLParser_flush_impl.exit

_check_xmlparser.exit.i:                          ; preds = %2
  %6 = getelementptr inbounds nuw i8, ptr %0, i64 120
  %7 = load ptr, ptr %6, align 8, !tbaa !166
  %8 = getelementptr inbounds nuw i8, ptr %7, i64 144
  %9 = load ptr, ptr %8, align 8, !tbaa !23
  %10 = getelementptr inbounds nuw i8, ptr %9, i64 176
  %11 = load ptr, ptr %10, align 8, !tbaa !190
  %12 = icmp eq ptr %11, null
  br i1 %12, label %_elementtree_XMLParser_flush_impl.exit, label %13

13:                                               ; preds = %_check_xmlparser.exit.i
  %14 = getelementptr inbounds nuw i8, ptr %0, i64 16
  %15 = load ptr, ptr %14, align 8, !tbaa !165
  %16 = tail call zeroext i8 %11(ptr noundef %15, i8 noundef zeroext 0) #12
  %17 = load ptr, ptr %8, align 8, !tbaa !23
  %18 = getelementptr inbounds nuw i8, ptr %17, i64 56
  %19 = load ptr, ptr %18, align 8, !tbaa !182
  %20 = load ptr, ptr %14, align 8, !tbaa !165
  %21 = tail call i32 %19(ptr noundef %20, ptr noundef nonnull @.str.79, i32 noundef 0, i32 noundef 0) #12
  %22 = tail call ptr @PyErr_Occurred() #12
  %.not.i.i = icmp eq ptr %22, null
  br i1 %.not.i.i, label %23, label %expat_parse.exit.i

23:                                               ; preds = %13
  %.not13.i.i = icmp eq i32 %21, 0
  br i1 %.not13.i.i, label %24, label %expat_parse.exit.i

24:                                               ; preds = %23
  %25 = load ptr, ptr %8, align 8, !tbaa !23
  %26 = getelementptr inbounds nuw i8, ptr %25, i64 32
  %27 = load ptr, ptr %26, align 8, !tbaa !183
  %28 = load ptr, ptr %14, align 8, !tbaa !165
  %29 = tail call i32 %27(ptr noundef %28) #12
  %30 = load ptr, ptr %8, align 8, !tbaa !23
  %31 = getelementptr inbounds nuw i8, ptr %30, i64 48
  %32 = load ptr, ptr %31, align 8, !tbaa !184
  %33 = load ptr, ptr %14, align 8, !tbaa !165
  %34 = tail call i64 %32(ptr noundef %33) #12
  %35 = load ptr, ptr %8, align 8, !tbaa !23
  %36 = getelementptr inbounds nuw i8, ptr %35, i64 40
  %37 = load ptr, ptr %36, align 8, !tbaa !185
  %38 = load ptr, ptr %14, align 8, !tbaa !165
  %39 = tail call i64 %37(ptr noundef %38) #12
  tail call fastcc void @expat_set_error(ptr noundef nonnull readonly %7, i32 noundef %29, i64 noundef %34, i64 noundef %39, ptr noundef null)
  br label %expat_parse.exit.i

expat_parse.exit.i:                               ; preds = %24, %23, %13
  %.0.i12.i = phi ptr [ null, %24 ], [ null, %13 ], [ @_Py_NoneStruct, %23 ]
  %40 = load ptr, ptr %8, align 8, !tbaa !23
  %41 = getelementptr inbounds nuw i8, ptr %40, i64 176
  %42 = load ptr, ptr %41, align 8, !tbaa !190
  %43 = load ptr, ptr %14, align 8, !tbaa !165
  %44 = tail call zeroext i8 %42(ptr noundef %43, i8 noundef zeroext 1) #12
  br label %_elementtree_XMLParser_flush_impl.exit

_elementtree_XMLParser_flush_impl.exit:           ; preds = %_check_xmlparser.exit.thread.i, %_check_xmlparser.exit.i, %expat_parse.exit.i
  %.0.i = phi ptr [ %.0.i12.i, %expat_parse.exit.i ], [ @_Py_NoneStruct, %_check_xmlparser.exit.i ], [ null, %_check_xmlparser.exit.thread.i ]
  ret ptr %.0.i
}